target datalayout = "e-m:e-p270:32:32-p271:32:32-p272:64:64-i64:64-i128:128-f80:128-n8:16:32:64-S128"
target triple = "x86_64-pc-linux-gnu"

%struct.quic_lcidm_st = type { ptr, ptr, ptr, i64 }
%struct.quic_lcid_st = type { %struct.quic_conn_id_st, i64, ptr, i8 }
%struct.quic_conn_id_st = type { i8, [20 x i8] }
%struct.quic_lcidm_conn_st = type { i64, ptr, ptr, ptr, i64, i8 }

; Function Attrs: inlinehint nounwind uwtable
define internal ptr @lh_QUIC_LCID_retrieve(ptr noundef %0, ptr noundef %1) #3 {
  %3 = alloca ptr, align 8
  %4 = alloca ptr, align 8
  store ptr %0, ptr %3, align 8, !tbaa !30
  store ptr %1, ptr %4, align 8, !tbaa !20
  %5 = load ptr, ptr %3, align 8, !tbaa !30
  %6 = load ptr, ptr %4, align 8, !tbaa !20
  %7 = call ptr @OPENSSL_LH_retrieve(ptr noundef %5, ptr noundef %6)
  ret ptr %7
}

; Function Attrs: nounwind uwtable
define internal ptr @lcidm_get0_lcid(ptr noundef %0, ptr noundef %1) #0 {
  %3 = alloca ptr, align 8
  %4 = alloca ptr, align 8
  %5 = alloca ptr, align 8
  %6 = alloca %struct.quic_lcid_st, align 8
  %7 = alloca i32, align 4
  store ptr %0, ptr %4, align 8, !tbaa !10
  store ptr %1, ptr %5, align 8, !tbaa !33
  call void @llvm.lifetime.start.p0(i64 48, ptr %6) #7
  %8 = getelementptr inbounds nuw %struct.quic_lcid_st, ptr %6, i32 0, i32 0
  %9 = load ptr, ptr %5, align 8, !tbaa !33
  call void @llvm.memcpy.p0.p0.i64(ptr align 8 %8, ptr align 1 %9, i64 21, i1 false), !tbaa.struct !36
  %10 = getelementptr inbounds nuw %struct.quic_lcid_st, ptr %6, i32 0, i32 0
  %11 = getelementptr inbounds nuw %struct.quic_conn_id_st, ptr %10, i32 0, i32 0
  %12 = load i8, ptr %11, align 8, !tbaa !22
  %13 = zext i8 %12 to i32
  %14 = icmp sgt i32 %13, 20
  br i1 %14, label %15, label %16

15:                                               ; preds = %2
  store ptr null, ptr %3, align 8
  store i32 1, ptr %7, align 4
  br label %21

16:                                               ; preds = %2
  %17 = load ptr, ptr %4, align 8, !tbaa !10
  %18 = getelementptr inbounds nuw %struct.quic_lcidm_st, ptr %17, i32 0, i32 1
  %19 = load ptr, ptr %18, align 8, !tbaa !12
  %20 = call ptr @lh_QUIC_LCID_retrieve(ptr noundef %19, ptr noundef %6)
  store ptr %20, ptr %3, align 8
  store i32 1, ptr %7, align 4
  br label %21

21:                                               ; preds = %16, %15
  call void @llvm.lifetime.end.p0(i64 48, ptr %6) #7
  %22 = load ptr, ptr %3, align 8
  ret ptr %22
}

; Function Attrs: nounwind uwtable
define i32 @ossl_quic_lcidm_lookup(ptr noundef %0, ptr noundef %1, ptr noundef %2, ptr noundef %3) #0 {
  %5 = alloca i32, align 4
  %6 = alloca ptr, align 8
  %7 = alloca ptr, align 8
  %8 = alloca ptr, align 8
  %9 = alloca ptr, align 8
  %10 = alloca ptr, align 8
  %11 = alloca i32, align 4
  store ptr %0, ptr %6, align 8, !tbaa !10
  store ptr %1, ptr %7, align 8, !tbaa !33
  store ptr %2, ptr %8, align 8, !tbaa !43
  store ptr %3, ptr %9, align 8, !tbaa !19
  call void @llvm.lifetime.start.p0(i64 8, ptr %10) #7
  %12 = load ptr, ptr %7, align 8, !tbaa !33
  %13 = icmp eq ptr %12, null
  br i1 %13, label %14, label %15

14:                                               ; preds = %4
  store i32 0, ptr %5, align 4
  store i32 1, ptr %11, align 4
  br label %40

15:                                               ; preds = %4
  %16 = load ptr, ptr %6, align 8, !tbaa !10
  %17 = load ptr, ptr %7, align 8, !tbaa !33
  %18 = call ptr @lcidm_get0_lcid(ptr noundef %16, ptr noundef %17)
  store ptr %18, ptr %10, align 8, !tbaa !20
  %19 = icmp eq ptr %18, null
  br i1 %19, label %20, label %21

20:                                               ; preds = %15
  store i32 0, ptr %5, align 4
  store i32 1, ptr %11, align 4
  br label %40

21:                                               ; preds = %15
  %22 = load ptr, ptr %8, align 8, !tbaa !43
  %23 = icmp ne ptr %22, null
  br i1 %23, label %24, label %29

24:                                               ; preds = %21
  %25 = load ptr, ptr %10, align 8, !tbaa !20
  %26 = getelementptr inbounds nuw %struct.quic_lcid_st, ptr %25, i32 0, i32 1
  %27 = load i64, ptr %26, align 8, !tbaa !38
  %28 = load ptr, ptr %8, align 8, !tbaa !43
  store i64 %27, ptr %28, align 8, !tbaa !8
  br label %29

29:                                               ; preds = %24, %21
  %30 = load ptr, ptr %9, align 8, !tbaa !19
  %31 = icmp ne ptr %30, null
  br i1 %31, label %32, label %39

32:                                               ; preds = %29
  %33 = load ptr, ptr %10, align 8, !tbaa !20
  %34 = getelementptr inbounds nuw %struct.quic_lcid_st, ptr %33, i32 0, i32 2
  %35 = load ptr, ptr %34, align 8, !tbaa !41
  %36 = getelementptr inbounds nuw %struct.quic_lcidm_conn_st, ptr %35, i32 0, i32 2
  %37 = load ptr, ptr %36, align 8, !tbaa !28
  %38 = load ptr, ptr %9, align 8, !tbaa !19
  store ptr %37, ptr %38, align 8, !tbaa !19
  br label %39

39:                                               ; preds = %32, %29
  store i32 1, ptr %5, align 4
  store i32 1, ptr %11, align 4
  br label %40

40:                                               ; preds = %39, %20, %14
  call void @llvm.lifetime.end.p0(i64 8, ptr %10) #7
  %41 = load i32, ptr %5, align 4
  ret i32 %41
}