; Function Attrs: nounwind uwtable
define range(i32 0, 2) i32 @ossl_quic_lcidm_lookup(ptr noundef readonly captures(none) %0, ptr noundef readonly captures(address_is_null) %1, ptr noundef writeonly captures(address_is_null) %2, ptr noundef writeonly captures(address_is_null) %3) local_unnamed_addr #0 {
  %5 = alloca %struct.quic_lcid_st, align 8
  %6 = icmp eq ptr %1, null
  br i1 %6, label %24, label %7

7:                                                ; preds = %4
  call void @llvm.lifetime.start.p0(i64 48, ptr nonnull %5) #11
  call void @llvm.memcpy.p0.p0.i64(ptr noundef nonnull align 8 dereferenceable(21) %5, ptr noundef nonnull readonly align 1 dereferenceable(21) %1, i64 21, i1 false), !tbaa.struct !29
  %8 = load i8, ptr %5, align 8, !tbaa !15
  %9 = icmp ugt i8 %8, 20
  br i1 %9, label %lcidm_get0_lcid.exit.thread, label %lcidm_get0_lcid.exit

lcidm_get0_lcid.exit.thread:                      ; preds = %7
  call void @llvm.lifetime.end.p0(i64 48, ptr nonnull %5) #11
  br label %24

lcidm_get0_lcid.exit:                             ; preds = %7
  %10 = getelementptr inbounds nuw i8, ptr %0, i64 8
  %11 = load ptr, ptr %10, align 8, !tbaa !3
  %12 = call ptr @OPENSSL_LH_retrieve(ptr noundef %11, ptr noundef nonnull %5) #11
  call void @llvm.lifetime.end.p0(i64 48, ptr nonnull %5) #11
  %13 = icmp eq ptr %12, null
  br i1 %13, label %24, label %14

14:                                               ; preds = %lcidm_get0_lcid.exit
  %.not = icmp eq ptr %2, null
  br i1 %.not, label %18, label %15

15:                                               ; preds = %14
  %16 = getelementptr inbounds nuw i8, ptr %12, i64 24
  %17 = load i64, ptr %16, align 8, !tbaa !30
  store i64 %17, ptr %2, align 8, !tbaa !35
  br label %18

18:                                               ; preds = %15, %14
  %.not13 = icmp eq ptr %3, null
  br i1 %.not13, label %24, label %19

19:                                               ; preds = %18
  %20 = getelementptr inbounds nuw i8, ptr %12, i64 32
  %21 = load ptr, ptr %20, align 8, !tbaa !32
  %22 = getelementptr inbounds nuw i8, ptr %21, i64 16
  %23 = load ptr, ptr %22, align 8, !tbaa !24
  store ptr %23, ptr %3, align 8, !tbaa !36
  br label %24

24:                                               ; preds = %lcidm_get0_lcid.exit.thread, %18, %19, %lcidm_get0_lcid.exit, %4
  %.0 = phi i32 [ 0, %4 ], [ 0, %lcidm_get0_lcid.exit ], [ 1, %19 ], [ 1, %18 ], [ 0, %lcidm_get0_lcid.exit.thread ]
  ret i32 %.0
}